target datalayout = "e-m:e-p270:32:32-p271:32:32-p272:64:64-i64:64-i128:128-f80:128-n8:16:32:64-S128"
target triple = "x86_64-pc-linux-gnu"

%class.LIR_Opr = type { i64 }
%class.PhiResolverState = type { %class.GrowableArray, %class.GrowableArray, %class.GrowableArray }
%class.GrowableArray = type { %class.GrowableArrayWithAllocator, %class.GrowableArrayMetadata }
%class.GrowableArrayWithAllocator = type { %class.GrowableArrayView }
%class.GrowableArrayView = type { %class.GrowableArrayBase, ptr }
%class.GrowableArrayBase = type { i32, i32 }
%class.GrowableArrayMetadata = type { i64 }
%class.LIRGenerator = type { %class.InstructionVisitor, %class.BlockClosure, ptr, ptr, %class.PhiResolverState, ptr, i32, %class.BitMap2D, ptr, %class.GrowableArray.0, %class.GrowableArray.3, %class.GrowableArray.6, ptr }
%class.InstructionVisitor = type { ptr }
%class.BlockClosure = type { ptr }
%class.BitMap2D = type { %class.ResourceBitMap, i64 }
%class.ResourceBitMap = type { %class.GrowableBitMap }
%class.GrowableBitMap = type { %class.BitMap }
%class.BitMap = type { ptr, i64 }
%class.GrowableArray.0 = type { %class.GrowableArrayWithAllocator.1, %class.GrowableArrayMetadata }
%class.GrowableArrayWithAllocator.1 = type { %class.GrowableArrayView.2 }
%class.GrowableArrayView.2 = type { %class.GrowableArrayBase, ptr }
%class.GrowableArray.3 = type { %class.GrowableArrayWithAllocator.4, %class.GrowableArrayMetadata }
%class.GrowableArrayWithAllocator.4 = type { %class.GrowableArrayView.5 }
%class.GrowableArrayView.5 = type { %class.GrowableArrayBase, ptr }
%class.GrowableArray.6 = type { %class.GrowableArrayWithAllocator.7, %class.GrowableArrayMetadata }
%class.GrowableArrayWithAllocator.7 = type { %class.GrowableArrayView.8 }
%class.GrowableArrayView.8 = type { %class.GrowableArrayBase, ptr }
%class.Instruction = type { ptr, i32, i32, i32, ptr, ptr, ptr, %class.LIR_Opr, i32, ptr, ptr, ptr, ptr }
%class.MemBar = type <{ %class.Instruction, i32, [4 x i8] }>

@g_assert_poison = external global ptr, align 8
@.str.4 = private unnamed_addr constant [41 x i8] c"src/hotspot/share/c1/c1_LIRGenerator.cpp\00", align 1

; Function Attrs: mustprogress nounwind uwtable
define linkonce_odr hidden noundef ptr @_ZNK12LIRGenerator3lirEv(ptr noundef nonnull align 8 dereferenceable(232) %0) #1 comdat align 2 {
  %2 = alloca ptr, align 8
  store ptr %0, ptr %2, align 8
  %3 = load ptr, ptr %2, align 8
  %4 = getelementptr inbounds %class.LIRGenerator, ptr %3, i32 0, i32 8
  %5 = load ptr, ptr %4, align 8
  ret ptr %5
}

; Function Attrs: mustprogress nounwind uwtable
define linkonce_odr hidden noundef ptr @_ZN12LIRGenerator3genEv(ptr noundef nonnull align 8 dereferenceable(232) %0) #1 comdat align 2 {
  %2 = alloca ptr, align 8
  store ptr %0, ptr %2, align 8
  %3 = load ptr, ptr %2, align 8
  ret ptr %3
}

; Function Attrs: mustprogress nounwind uwtable
define linkonce_odr hidden noundef i32 @_ZN6MemBar4codeEv(ptr noundef nonnull align 8 dereferenceable(100) %0) #1 comdat align 2 {
  %2 = alloca ptr, align 8
  store ptr %0, ptr %2, align 8
  %3 = load ptr, ptr %2, align 8
  %4 = getelementptr inbounds %class.MemBar, ptr %3, i32 0, i32 1
  %5 = load i32, ptr %4, align 8
  ret i32 %5
}

; Function Attrs: mustprogress nounwind uwtable
define hidden void @_ZN12LIRGenerator9do_MemBarEP6MemBar(ptr noundef nonnull align 8 dereferenceable(232) %0, ptr noundef %1) unnamed_addr #1 align 2 {
  %3 = alloca ptr, align 8
  %4 = alloca ptr, align 8
  %5 = alloca i32, align 4
  store ptr %0, ptr %3, align 8
  store ptr %1, ptr %4, align 8
  %6 = load ptr, ptr %3, align 8
  %7 = load ptr, ptr %4, align 8
  %8 = call noundef i32 @_ZN6MemBar4codeEv(ptr noundef nonnull align 8 dereferenceable(100) %7)
  store i32 %8, ptr %5, align 4
  %9 = load i32, ptr %5, align 4
  switch i32 %9, label %31 [
    i32 10, label %10
    i32 11, label %13
    i32 9, label %16
    i32 12, label %19
    i32 13, label %22
    i32 14, label %25
    i32 15, label %28
  ]

10:                                               ; preds = %2
  %11 = call noundef ptr @_ZN12LIRGenerator3genEv(ptr noundef nonnull align 8 dereferenceable(232) %6)
  %12 = call noundef ptr @_ZNK12LIRGenerator3lirEv(ptr noundef nonnull align 8 dereferenceable(232) %11)
  call void @_ZN8LIR_List14membar_acquireEv(ptr noundef nonnull align 8 dereferenceable(32) %12)
  br label %35

13:                                               ; preds = %2
  %14 = call noundef ptr @_ZN12LIRGenerator3genEv(ptr noundef nonnull align 8 dereferenceable(232) %6)
  %15 = call noundef ptr @_ZNK12LIRGenerator3lirEv(ptr noundef nonnull align 8 dereferenceable(232) %14)
  call void @_ZN8LIR_List14membar_releaseEv(ptr noundef nonnull align 8 dereferenceable(32) %15)
  br label %35

16:                                               ; preds = %2
  %17 = call noundef ptr @_ZN12LIRGenerator3genEv(ptr noundef nonnull align 8 dereferenceable(232) %6)
  %18 = call noundef ptr @_ZNK12LIRGenerator3lirEv(ptr noundef nonnull align 8 dereferenceable(232) %17)
  call void @_ZN8LIR_List6membarEv(ptr noundef nonnull align 8 dereferenceable(32) %18)
  br label %35

19:                                               ; preds = %2
  %20 = call noundef ptr @_ZN12LIRGenerator3genEv(ptr noundef nonnull align 8 dereferenceable(232) %6)
  %21 = call noundef ptr @_ZNK12LIRGenerator3lirEv(ptr noundef nonnull align 8 dereferenceable(232) %20)
  call void @_ZN8LIR_List15membar_loadloadEv(ptr noundef nonnull align 8 dereferenceable(32) %21)
  br label %35

22:                                               ; preds = %2
  %23 = call noundef ptr @_ZN12LIRGenerator3genEv(ptr noundef nonnull align 8 dereferenceable(232) %6)
  %24 = call noundef ptr @_ZNK12LIRGenerator3lirEv(ptr noundef nonnull align 8 dereferenceable(232) %23)
  call void @_ZN8LIR_List17membar_storestoreEv(ptr noundef nonnull align 8 dereferenceable(32) %24)
  br label %35

25:                                               ; preds = %2
  %26 = call noundef ptr @_ZN12LIRGenerator3genEv(ptr noundef nonnull align 8 dereferenceable(232) %6)
  %27 = call noundef ptr @_ZNK12LIRGenerator3lirEv(ptr noundef nonnull align 8 dereferenceable(232) %26)
  call void @_ZN8LIR_List16membar_loadstoreEv(ptr noundef nonnull align 8 dereferenceable(32) %27)
  br label %35

28:                                               ; preds = %2
  %29 = call noundef ptr @_ZN12LIRGenerator3genEv(ptr noundef nonnull align 8 dereferenceable(232) %6)
  %30 = call noundef ptr @_ZNK12LIRGenerator3lirEv(ptr noundef nonnull align 8 dereferenceable(232) %29)
  call void @_ZN8LIR_List16membar_storeloadEv(ptr noundef nonnull align 8 dereferenceable(32) %30)
  br label %35

31:                                               ; preds = %2
  br label %32

32:                                               ; preds = %31
  %33 = load ptr, ptr @g_assert_poison, align 8
  store i8 88, ptr %33, align 1
  call void @_Z28report_should_not_reach_herePKci(ptr noundef @.str.4, i32 noundef 3563) #7
  unreachable

34:                                               ; No predecessors!
  br label %35

35:                                               ; preds = %34, %28, %25, %22, %19, %16, %13, %10
  ret void
}