; Function Attrs: mustprogress nounwind uwtable
define hidden void @_ZN12LIRGenerator9do_MemBarEP6MemBar(ptr nocapture noundef nonnull readonly align 8 dereferenceable(232) %0, ptr nocapture noundef readonly %1) unnamed_addr #3 align 2 {
  %3 = getelementptr inbounds i8, ptr %1, i64 96
  %4 = load i32, ptr %3, align 8
  switch i32 %4, label %26 [
    i32 10, label %5
    i32 11, label %8
    i32 9, label %11
    i32 12, label %14
    i32 13, label %17
    i32 14, label %20
    i32 15, label %23
  ]

5:                                                ; preds = %2
  %6 = getelementptr inbounds i8, ptr %0, i64 144
  %7 = load ptr, ptr %6, align 8
  tail call void @_ZN8LIR_List14membar_acquireEv(ptr noundef nonnull align 8 dereferenceable(32) %7)
  br label %28

8:                                                ; preds = %2
  %9 = getelementptr inbounds i8, ptr %0, i64 144
  %10 = load ptr, ptr %9, align 8
  tail call void @_ZN8LIR_List14membar_releaseEv(ptr noundef nonnull align 8 dereferenceable(32) %10)
  br label %28

11:                                               ; preds = %2
  %12 = getelementptr inbounds i8, ptr %0, i64 144
  %13 = load ptr, ptr %12, align 8
  tail call void @_ZN8LIR_List6membarEv(ptr noundef nonnull align 8 dereferenceable(32) %13)
  br label %28

14:                                               ; preds = %2
  %15 = getelementptr inbounds i8, ptr %0, i64 144
  %16 = load ptr, ptr %15, align 8
  tail call void @_ZN8LIR_List15membar_loadloadEv(ptr noundef nonnull align 8 dereferenceable(32) %16)
  br label %28

17:                                               ; preds = %2
  %18 = getelementptr inbounds i8, ptr %0, i64 144
  %19 = load ptr, ptr %18, align 8
  tail call void @_ZN8LIR_List17membar_storestoreEv(ptr noundef nonnull align 8 dereferenceable(32) %19)
  br label %28

20:                                               ; preds = %2
  %21 = getelementptr inbounds i8, ptr %0, i64 144
  %22 = load ptr, ptr %21, align 8
  tail call void @_ZN8LIR_List16membar_loadstoreEv(ptr noundef nonnull align 8 dereferenceable(32) %22)
  br label %28

23:                                               ; preds = %2
  %24 = getelementptr inbounds i8, ptr %0, i64 144
  %25 = load ptr, ptr %24, align 8
  tail call void @_ZN8LIR_List16membar_storeloadEv(ptr noundef nonnull align 8 dereferenceable(32) %25)
  br label %28

26:                                               ; preds = %2
  %27 = load ptr, ptr @g_assert_poison, align 8
  store i8 88, ptr %27, align 1
  tail call void @_Z28report_should_not_reach_herePKci(ptr noundef nonnull @.str.4, i32 noundef 3563) #18
  unreachable

28:                                               ; preds = %23, %20, %17, %14, %11, %8, %5
  ret void
}